target datalayout = "e-m:e-p270:32:32-p271:32:32-p272:64:64-i64:64-i128:128-f80:128-n8:16:32:64-S128"
target triple = "x86_64-pc-linux-gnu"

%struct.dt_control_image_enumerator_t = type { ptr, i32, ptr, i32 }

; Function Attrs: nounwind uwtable
define internal void @dt_control_image_enumerator_cleanup(ptr noundef %0) #0 {
  %2 = alloca ptr, align 8
  %3 = alloca ptr, align 8
  store ptr %0, ptr %2, align 8, !tbaa !6
  call void @llvm.lifetime.start.p0(i64 8, ptr %3) #14
  %4 = load ptr, ptr %2, align 8, !tbaa !6
  store ptr %4, ptr %3, align 8, !tbaa !53
  %5 = load ptr, ptr %3, align 8, !tbaa !53
  %6 = getelementptr inbounds nuw %struct.dt_control_image_enumerator_t, ptr %5, i32 0, i32 0
  %7 = load ptr, ptr %6, align 8, !tbaa !57
  call void @g_list_free(ptr noundef %7)
  %8 = load ptr, ptr %3, align 8, !tbaa !53
  %9 = getelementptr inbounds nuw %struct.dt_control_image_enumerator_t, ptr %8, i32 0, i32 0
  store ptr null, ptr %9, align 8, !tbaa !57
  %10 = load ptr, ptr %3, align 8, !tbaa !53
  %11 = getelementptr inbounds nuw %struct.dt_control_image_enumerator_t, ptr %10, i32 0, i32 3
  %12 = load i32, ptr %11, align 8, !tbaa !55
  %13 = icmp ne i32 %12, 0
  br i1 %13, label %14, label %15

14:                                               ; preds = %1
  call void @g_main_context_invoke(ptr noundef null, ptr noundef @_cursor_clear_busy, ptr noundef null)
  br label %15

15:                                               ; preds = %14, %1
  %16 = load ptr, ptr %3, align 8, !tbaa !53
  call void @free(ptr noundef %16) #14
  call void @llvm.lifetime.end.p0(i64 8, ptr %3) #14
  ret void
}