; Function Attrs: nounwind uwtable
define internal void @dt_control_image_enumerator_cleanup(ptr noundef captures(none) %0) #0 {
  %2 = load ptr, ptr %0, align 8, !tbaa !50
  tail call void @g_list_free(ptr noundef %2) #17
  store ptr null, ptr %0, align 8, !tbaa !50
  %3 = getelementptr inbounds nuw i8, ptr %0, i64 24
  %4 = load i32, ptr %3, align 8, !tbaa !48
  %.not = icmp eq i32 %4, 0
  br i1 %.not, label %6, label %5

5:                                                ; preds = %1
  tail call void @g_main_context_invoke(ptr noundef null, ptr noundef nonnull @_cursor_clear_busy, ptr noundef null) #17
  br label %6

6:                                                ; preds = %5, %1
  tail call void @free(ptr noundef nonnull %0) #17
  ret void
}